target datalayout = "e-m:e-p270:32:32-p271:32:32-p272:64:64-i64:64-i128:128-f80:128-n8:16:32:64-S128"
target triple = "x86_64-pc-linux-gnu"

%struct.strbuf = type { i64, i64, ptr }
%struct.packet_reader = type { i32, ptr, i64, ptr, i32, i32, i32, i32, ptr, i32, i8, ptr, ptr, %struct.strbuf }

@.str.195 = private unnamed_addr constant [29 x i8] c"expected '%s', received '%s'\00", align 1
@.str.196 = private unnamed_addr constant [14 x i8] c"expected '%s'\00", align 1

; Function Attrs: nounwind uwtable
define internal i32 @process_section_header(ptr noundef %0, ptr noundef %1, i32 noundef %2) #0 {
  %4 = alloca ptr, align 8
  %5 = alloca ptr, align 8
  %6 = alloca i32, align 4
  %7 = alloca i32, align 4
  store ptr %0, ptr %4, align 8, !tbaa !131
  store ptr %1, ptr %5, align 8, !tbaa !4
  store i32 %2, ptr %6, align 4, !tbaa !19
  call void @llvm.lifetime.start.p0(i64 4, ptr %7) #11
  store i32 0, ptr %7, align 4, !tbaa !19
  %8 = load ptr, ptr %4, align 8, !tbaa !131
  %9 = call i32 @packet_reader_peek(ptr noundef %8)
  %10 = icmp eq i32 %9, 1
  br i1 %10, label %11, label %19

11:                                               ; preds = %3
  %12 = load ptr, ptr %4, align 8, !tbaa !131
  %13 = getelementptr inbounds nuw %struct.packet_reader, ptr %12, i32 0, i32 8
  %14 = load ptr, ptr %13, align 8, !tbaa !133
  %15 = load ptr, ptr %5, align 8, !tbaa !4
  %16 = call i32 @strcmp(ptr noundef %14, ptr noundef %15) #12
  %17 = icmp ne i32 %16, 0
  br i1 %17, label %19, label %18

18:                                               ; preds = %11
  store i32 1, ptr %7, align 4, !tbaa !19
  br label %19

19:                                               ; preds = %18, %11, %3
  %20 = load i32, ptr %6, align 4, !tbaa !19
  %21 = icmp ne i32 %20, 0
  br i1 %21, label %42, label %22

22:                                               ; preds = %19
  %23 = load i32, ptr %7, align 4, !tbaa !19
  %24 = icmp ne i32 %23, 0
  br i1 %24, label %39, label %25

25:                                               ; preds = %22
  %26 = load ptr, ptr %4, align 8, !tbaa !131
  %27 = getelementptr inbounds nuw %struct.packet_reader, ptr %26, i32 0, i32 8
  %28 = load ptr, ptr %27, align 8, !tbaa !133
  %29 = icmp ne ptr %28, null
  br i1 %29, label %30, label %36

30:                                               ; preds = %25
  %31 = call ptr @_(ptr noundef @.str.195)
  %32 = load ptr, ptr %5, align 8, !tbaa !4
  %33 = load ptr, ptr %4, align 8, !tbaa !131
  %34 = getelementptr inbounds nuw %struct.packet_reader, ptr %33, i32 0, i32 8
  %35 = load ptr, ptr %34, align 8, !tbaa !133
  call void (ptr, ...) @die(ptr noundef %31, ptr noundef %32, ptr noundef %35) #13
  unreachable

36:                                               ; preds = %25
  %37 = call ptr @_(ptr noundef @.str.196)
  %38 = load ptr, ptr %5, align 8, !tbaa !4
  call void (ptr, ...) @die(ptr noundef %37, ptr noundef %38) #13
  unreachable

39:                                               ; preds = %22
  %40 = load ptr, ptr %4, align 8, !tbaa !131
  %41 = call i32 @packet_reader_read(ptr noundef %40)
  br label %42

42:                                               ; preds = %39, %19
  %43 = load i32, ptr %7, align 4, !tbaa !19
  call void @llvm.lifetime.end.p0(i64 4, ptr %7) #11
  ret i32 %43
}