; Function Attrs: nounwind uwtable
define internal fastcc void @process_section_header(ptr noundef nonnull %0, ptr noundef %1, i32 noundef range(i32 0, 2) %2) unnamed_addr #0 {
  %4 = tail call i32 @packet_reader_peek(ptr noundef nonnull %0) #20
  %5 = icmp eq i32 %4, 1
  %.not10 = icmp eq i32 %2, 0
  br i1 %5, label %6, label %.thread

6:                                                ; preds = %3
  br i1 %.not10, label %7, label %19

.thread:                                          ; preds = %3
  br i1 %.not10, label %.thread20, label %19

7:                                                ; preds = %6
  %8 = getelementptr inbounds nuw i8, ptr %0, i64 48
  %9 = load ptr, ptr %8, align 8, !tbaa !80
  %10 = tail call i32 @strcmp(ptr noundef nonnull dereferenceable(1) %9, ptr noundef nonnull dereferenceable(1) %1) #19
  %.not.not = icmp eq i32 %10, 0
  br i1 %.not.not, label %17, label %.thread20.thread

.thread20:                                        ; preds = %.thread
  %.phi.trans.insert = getelementptr inbounds nuw i8, ptr %0, i64 48
  %.pre = load ptr, ptr %.phi.trans.insert, align 8, !tbaa !80
  %11 = icmp eq ptr %.pre, null
  br i1 %11, label %15, label %.thread20.thread

.thread20.thread:                                 ; preds = %7, %.thread20
  %12 = getelementptr inbounds nuw i8, ptr %0, i64 48
  %13 = tail call fastcc ptr @_(ptr noundef nonnull @.str.195)
  %14 = load ptr, ptr %12, align 8, !tbaa !80
  tail call void (ptr, ...) @die(ptr noundef %13, ptr noundef %1, ptr noundef %14) #21
  unreachable

15:                                               ; preds = %.thread20
  %16 = tail call fastcc ptr @_(ptr noundef nonnull @.str.196)
  tail call void (ptr, ...) @die(ptr noundef %16, ptr noundef %1) #21
  unreachable

17:                                               ; preds = %7
  %18 = tail call i32 @packet_reader_read(ptr noundef nonnull %0) #20
  br label %19

19:                                               ; preds = %.thread, %17, %6
  ret void
}